; Function Attrs: mustprogress uwtable
define ptr @rocksdb_writebatch_wi_data(ptr noundef readonly captures(none) %0, ptr noundef writeonly captures(none) initializes((0, 8)) %1) local_unnamed_addr #0 {
  %3 = load ptr, ptr %0, align 8, !tbaa !410
  %4 = load ptr, ptr %3, align 8, !tbaa !23
  %5 = getelementptr inbounds nuw i8, ptr %4, i64 256
  %6 = load ptr, ptr %5, align 8
  %7 = tail call noundef ptr %6(ptr noundef nonnull align 8 dereferenceable(16) %3)
  %8 = getelementptr inbounds nuw i8, ptr %7, i64 136
  %9 = load i64, ptr %8, align 8, !tbaa !15
  store i64 %9, ptr %1, align 8, !tbaa !10
  %10 = getelementptr inbounds nuw i8, ptr %7, i64 128
  %11 = load ptr, ptr %10, align 8, !tbaa !12
  ret ptr %11
}